target datalayout = "e-m:e-p270:32:32-p271:32:32-p272:64:64-i64:64-i128:128-f80:128-n8:16:32:64-S128"
target triple = "x86_64-pc-linux-gnu"

%struct.AVProbeData = type { ptr, ptr, i32, ptr }

@matroska_doctypes = internal constant [2 x ptr] [ptr @.str.106, ptr @.str.107], align 16

; Function Attrs: alwaysinline nounwind willreturn memory(none) uwtable
define internal i32 @av_bswap32(i32 noundef %0) #7 {
  %2 = alloca i32, align 4
  store i32 %0, ptr %2, align 4, !tbaa !9
  %3 = load i32, ptr %2, align 4, !tbaa !9
  %4 = shl i32 %3, 8
  %5 = and i32 %4, 65280
  %6 = load i32, ptr %2, align 4, !tbaa !9
  %7 = lshr i32 %6, 8
  %8 = and i32 %7, 255
  %9 = or i32 %5, %8
  %10 = shl i32 %9, 16
  %11 = load i32, ptr %2, align 4, !tbaa !9
  %12 = lshr i32 %11, 16
  %13 = shl i32 %12, 8
  %14 = and i32 %13, 65280
  %15 = load i32, ptr %2, align 4, !tbaa !9
  %16 = lshr i32 %15, 16
  %17 = lshr i32 %16, 8
  %18 = and i32 %17, 255
  %19 = or i32 %14, %18
  %20 = or i32 %10, %19
  ret i32 %20
}

; Function Attrs: nounwind uwtable
define internal i32 @matroska_probe(ptr noundef %0) #0 {
  %2 = alloca i32, align 4
  %3 = alloca ptr, align 8
  %4 = alloca i64, align 8
  %5 = alloca i32, align 4
  %6 = alloca i32, align 4
  %7 = alloca i32, align 4
  %8 = alloca i32, align 4
  %9 = alloca i32, align 4
  %10 = alloca i64, align 8
  store ptr %0, ptr %3, align 8, !tbaa !65
  call void @llvm.lifetime.start.p0(i64 8, ptr %4) #14
  store i64 0, ptr %4, align 8, !tbaa !49
  call void @llvm.lifetime.start.p0(i64 4, ptr %5) #14
  store i32 128, ptr %5, align 4, !tbaa !9
  call void @llvm.lifetime.start.p0(i64 4, ptr %6) #14
  store i32 1, ptr %6, align 4, !tbaa !9
  call void @llvm.lifetime.start.p0(i64 4, ptr %7) #14
  store i32 1, ptr %7, align 4, !tbaa !9
  call void @llvm.lifetime.start.p0(i64 4, ptr %8) #14
  %11 = load ptr, ptr %3, align 8, !tbaa !65
  %12 = getelementptr inbounds nuw %struct.AVProbeData, ptr %11, i32 0, i32 1
  %13 = load ptr, ptr %12, align 8, !tbaa !67
  %14 = load i32, ptr %13, align 1, !tbaa !69
  %15 = call i32 @av_bswap32(i32 noundef %14) #16
  %16 = icmp ne i32 %15, 440786851
  br i1 %16, label %17, label %18

17:                                               ; preds = %1
  store i32 0, ptr %2, align 4
  store i32 1, ptr %9, align 4
  br label %155

18:                                               ; preds = %1
  %19 = load ptr, ptr %3, align 8, !tbaa !65
  %20 = getelementptr inbounds nuw %struct.AVProbeData, ptr %19, i32 0, i32 1
  %21 = load ptr, ptr %20, align 8, !tbaa !67
  %22 = getelementptr inbounds i8, ptr %21, i64 4
  %23 = load i8, ptr %22, align 1, !tbaa !69
  %24 = zext i8 %23 to i64
  store i64 %24, ptr %4, align 8, !tbaa !49
  br label %25

25:                                               ; preds = %37, %18
  %26 = load i32, ptr %6, align 4, !tbaa !9
  %27 = icmp sle i32 %26, 8
  br i1 %27, label %28, label %35

28:                                               ; preds = %25
  %29 = load i64, ptr %4, align 8, !tbaa !49
  %30 = load i32, ptr %5, align 4, !tbaa !9
  %31 = sext i32 %30 to i64
  %32 = and i64 %29, %31
  %33 = icmp ne i64 %32, 0
  %34 = xor i1 %33, true
  br label %35

35:                                               ; preds = %28, %25
  %36 = phi i1 [ false, %25 ], [ %34, %28 ]
  br i1 %36, label %37, label %42

37:                                               ; preds = %35
  %38 = load i32, ptr %6, align 4, !tbaa !9
  %39 = add nsw i32 %38, 1
  store i32 %39, ptr %6, align 4, !tbaa !9
  %40 = load i32, ptr %5, align 4, !tbaa !9
  %41 = ashr i32 %40, 1
  store i32 %41, ptr %5, align 4, !tbaa !9
  br label %25, !llvm.loop !70

42:                                               ; preds = %35
  %43 = load i32, ptr %6, align 4, !tbaa !9
  %44 = icmp sgt i32 %43, 8
  br i1 %44, label %45, label %46

45:                                               ; preds = %42
  store i32 0, ptr %2, align 4
  store i32 1, ptr %9, align 4
  br label %155

46:                                               ; preds = %42
  %47 = load i32, ptr %5, align 4, !tbaa !9
  %48 = sub nsw i32 %47, 1
  %49 = sext i32 %48 to i64
  %50 = load i64, ptr %4, align 8, !tbaa !49
  %51 = and i64 %50, %49
  store i64 %51, ptr %4, align 8, !tbaa !49
  br label %52

52:                                               ; preds = %56, %46
  %53 = load i32, ptr %7, align 4, !tbaa !9
  %54 = load i32, ptr %6, align 4, !tbaa !9
  %55 = icmp slt i32 %53, %54
  br i1 %55, label %56, label %70

56:                                               ; preds = %52
  %57 = load i64, ptr %4, align 8, !tbaa !49
  %58 = shl i64 %57, 8
  %59 = load ptr, ptr %3, align 8, !tbaa !65
  %60 = getelementptr inbounds nuw %struct.AVProbeData, ptr %59, i32 0, i32 1
  %61 = load ptr, ptr %60, align 8, !tbaa !67
  %62 = load i32, ptr %7, align 4, !tbaa !9
  %63 = add nsw i32 %62, 1
  store i32 %63, ptr %7, align 4, !tbaa !9
  %64 = add nsw i32 4, %62
  %65 = sext i32 %64 to i64
  %66 = getelementptr inbounds i8, ptr %61, i64 %65
  %67 = load i8, ptr %66, align 1, !tbaa !69
  %68 = zext i8 %67 to i64
  %69 = or i64 %58, %68
  store i64 %69, ptr %4, align 8, !tbaa !49
  br label %52, !llvm.loop !71

70:                                               ; preds = %52
  %71 = load i64, ptr %4, align 8, !tbaa !49
  %72 = add i64 %71, 1
  %73 = load i32, ptr %6, align 4, !tbaa !9
  %74 = mul nsw i32 7, %73
  %75 = zext i32 %74 to i64
  %76 = shl i64 1, %75
  %77 = icmp eq i64 %72, %76
  br i1 %77, label %78, label %86

78:                                               ; preds = %70
  %79 = load ptr, ptr %3, align 8, !tbaa !65
  %80 = getelementptr inbounds nuw %struct.AVProbeData, ptr %79, i32 0, i32 2
  %81 = load i32, ptr %80, align 8, !tbaa !72
  %82 = sub nsw i32 %81, 4
  %83 = load i32, ptr %6, align 4, !tbaa !9
  %84 = sub nsw i32 %82, %83
  %85 = sext i32 %84 to i64
  store i64 %85, ptr %4, align 8, !tbaa !49
  br label %99

86:                                               ; preds = %70
  %87 = load ptr, ptr %3, align 8, !tbaa !65
  %88 = getelementptr inbounds nuw %struct.AVProbeData, ptr %87, i32 0, i32 2
  %89 = load i32, ptr %88, align 8, !tbaa !72
  %90 = sext i32 %89 to i64
  %91 = load i32, ptr %6, align 4, !tbaa !9
  %92 = add nsw i32 4, %91
  %93 = sext i32 %92 to i64
  %94 = load i64, ptr %4, align 8, !tbaa !49
  %95 = add i64 %93, %94
  %96 = icmp ult i64 %90, %95
  br i1 %96, label %97, label %98

97:                                               ; preds = %86
  store i32 0, ptr %2, align 4
  store i32 1, ptr %9, align 4
  br label %155

98:                                               ; preds = %86
  br label %99

99:                                               ; preds = %98, %78
  store i32 0, ptr %8, align 4, !tbaa !9
  br label %100

100:                                              ; preds = %151, %99
  %101 = load i32, ptr %8, align 4, !tbaa !9
  %102 = sext i32 %101 to i64
  %103 = icmp ult i64 %102, 2
  br i1 %103, label %104, label %154

104:                                              ; preds = %100
  call void @llvm.lifetime.start.p0(i64 8, ptr %10) #14
  %105 = load i32, ptr %8, align 4, !tbaa !9
  %106 = sext i32 %105 to i64
  %107 = getelementptr inbounds [2 x ptr], ptr @matroska_doctypes, i64 0, i64 %106
  %108 = load ptr, ptr %107, align 8, !tbaa !44
  %109 = call i64 @strlen(ptr noundef %108) #15
  store i64 %109, ptr %10, align 8, !tbaa !49
  %110 = load i64, ptr %4, align 8, !tbaa !49
  %111 = load i64, ptr %10, align 8, !tbaa !49
  %112 = icmp ult i64 %110, %111
  br i1 %112, label %113, label %114

113:                                              ; preds = %104
  store i32 8, ptr %9, align 4
  br label %148

114:                                              ; preds = %104
  %115 = load i32, ptr %6, align 4, !tbaa !9
  %116 = add nsw i32 4, %115
  store i32 %116, ptr %7, align 4, !tbaa !9
  br label %117

117:                                              ; preds = %144, %114
  %118 = load i32, ptr %7, align 4, !tbaa !9
  %119 = sext i32 %118 to i64
  %120 = load i32, ptr %6, align 4, !tbaa !9
  %121 = add nsw i32 4, %120
  %122 = sext i32 %121 to i64
  %123 = load i64, ptr %4, align 8, !tbaa !49
  %124 = add i64 %122, %123
  %125 = load i64, ptr %10, align 8, !tbaa !49
  %126 = sub i64 %124, %125
  %127 = icmp ule i64 %119, %126
  br i1 %127, label %128, label %147

128:                                              ; preds = %117
  %129 = load ptr, ptr %3, align 8, !tbaa !65
  %130 = getelementptr inbounds nuw %struct.AVProbeData, ptr %129, i32 0, i32 1
  %131 = load ptr, ptr %130, align 8, !tbaa !67
  %132 = load i32, ptr %7, align 4, !tbaa !9
  %133 = sext i32 %132 to i64
  %134 = getelementptr inbounds i8, ptr %131, i64 %133
  %135 = load i32, ptr %8, align 4, !tbaa !9
  %136 = sext i32 %135 to i64
  %137 = getelementptr inbounds [2 x ptr], ptr @matroska_doctypes, i64 0, i64 %136
  %138 = load ptr, ptr %137, align 8, !tbaa !44
  %139 = load i64, ptr %10, align 8, !tbaa !49
  %140 = call i32 @memcmp(ptr noundef %134, ptr noundef %138, i64 noundef %139) #15
  %141 = icmp ne i32 %140, 0
  br i1 %141, label %143, label %142

142:                                              ; preds = %128
  store i32 100, ptr %2, align 4
  store i32 1, ptr %9, align 4
  br label %148

143:                                              ; preds = %128
  br label %144

144:                                              ; preds = %143
  %145 = load i32, ptr %7, align 4, !tbaa !9
  %146 = add nsw i32 %145, 1
  store i32 %146, ptr %7, align 4, !tbaa !9
  br label %117, !llvm.loop !73

147:                                              ; preds = %117
  store i32 0, ptr %9, align 4
  br label %148

148:                                              ; preds = %147, %142, %113
  call void @llvm.lifetime.end.p0(i64 8, ptr %10) #14
  %149 = load i32, ptr %9, align 4
  switch i32 %149, label %155 [
    i32 0, label %150
    i32 8, label %151
  ]

150:                                              ; preds = %148
  br label %151

151:                                              ; preds = %150, %148
  %152 = load i32, ptr %8, align 4, !tbaa !9
  %153 = add nsw i32 %152, 1
  store i32 %153, ptr %8, align 4, !tbaa !9
  br label %100, !llvm.loop !74

154:                                              ; preds = %100
  store i32 50, ptr %2, align 4
  store i32 1, ptr %9, align 4
  br label %155

155:                                              ; preds = %154, %148, %97, %45, %17
  call void @llvm.lifetime.end.p0(i64 4, ptr %8) #14
  call void @llvm.lifetime.end.p0(i64 4, ptr %7) #14
  call void @llvm.lifetime.end.p0(i64 4, ptr %6) #14
  call void @llvm.lifetime.end.p0(i64 4, ptr %5) #14
  call void @llvm.lifetime.end.p0(i64 8, ptr %4) #14
  %156 = load i32, ptr %2, align 4
  ret i32 %156
}