; Function Attrs: nofree norecurse nounwind memory(read, inaccessiblemem: none) uwtable
define internal range(i32 0, 101) i32 @matroska_probe(ptr noundef readonly captures(none) %0) #2 {
  %2 = getelementptr inbounds nuw i8, ptr %0, i64 8
  %3 = load ptr, ptr %2, align 8, !tbaa !129
  %4 = load i32, ptr %3, align 1, !tbaa !119
  %.not = icmp eq i32 %4, -1545648870
  br i1 %.not, label %5, label %.loopexit54

5:                                                ; preds = %1
  %6 = getelementptr inbounds nuw i8, ptr %3, i64 4
  %7 = load i8, ptr %6, align 1, !tbaa !119
  %8 = zext i8 %7 to i64
  %.not4956 = icmp sgt i8 %7, -1
  br i1 %.not4956, label %.lr.ph, label %15

.lr.ph:                                           ; preds = %5, %.lr.ph
  %.04258 = phi i32 [ %9, %.lr.ph ], [ 1, %5 ]
  %.04357 = phi i32 [ %10, %.lr.ph ], [ 128, %5 ]
  %9 = add nuw nsw i32 %.04258, 1
  %10 = lshr i32 %.04357, 1
  %11 = icmp samesign ult i32 %.04258, 8
  %12 = zext nneg i32 %10 to i64
  %13 = and i64 %12, %8
  %.not49 = icmp eq i64 %13, 0
  %or.cond = select i1 %11, i1 %.not49, i1 false
  br i1 %or.cond, label %.lr.ph, label %.critedge, !llvm.loop !130

.critedge:                                        ; preds = %.lr.ph
  %14 = icmp samesign ugt i32 %.04258, 7
  br i1 %14, label %.loopexit54, label %.lr.ph62.preheader

15:                                               ; preds = %5
  %16 = and i64 %8, 127
  br label %._crit_edge

.lr.ph62.preheader:                               ; preds = %.critedge
  %17 = add nuw nsw i32 %10, 127
  %18 = zext nneg i32 %17 to i64
  %19 = and i64 %18, %8
  %wide.trip.count = zext nneg i32 %9 to i64
  br label %.lr.ph62

.lr.ph62:                                         ; preds = %.lr.ph62.preheader, %.lr.ph62
  %indvars.iv = phi i64 [ 1, %.lr.ph62.preheader ], [ %indvars.iv.next, %.lr.ph62 ]
  %.04460 = phi i64 [ %19, %.lr.ph62.preheader ], [ %23, %.lr.ph62 ]
  %20 = shl i64 %.04460, 8
  %indvars.iv.next = add nuw nsw i64 %indvars.iv, 1
  %gep = getelementptr inbounds nuw i8, ptr %6, i64 %indvars.iv
  %21 = load i8, ptr %gep, align 1, !tbaa !119
  %22 = zext i8 %21 to i64
  %23 = or disjoint i64 %20, %22
  %exitcond.not = icmp eq i64 %indvars.iv.next, %wide.trip.count
  br i1 %exitcond.not, label %._crit_edge, label %.lr.ph62, !llvm.loop !131

._crit_edge:                                      ; preds = %.lr.ph62, %15
  %.042.lcssa8790 = phi i32 [ 1, %15 ], [ %9, %.lr.ph62 ]
  %.044.lcssa = phi i64 [ %16, %15 ], [ %23, %.lr.ph62 ]
  %24 = add i64 %.044.lcssa, 1
  %25 = mul nuw nsw i32 %.042.lcssa8790, 7
  %26 = zext nneg i32 %25 to i64
  %27 = shl nuw nsw i64 1, %26
  %28 = icmp eq i64 %24, %27
  %29 = getelementptr inbounds nuw i8, ptr %0, i64 16
  %30 = load i32, ptr %29, align 8, !tbaa !132
  br i1 %28, label %31, label %34

31:                                               ; preds = %._crit_edge
  %reass.sub = sub i32 %30, %.042.lcssa8790
  %32 = add i32 %reass.sub, -4
  %33 = sext i32 %32 to i64
  %.pre = add nuw nsw i32 %.042.lcssa8790, 4
  %.pre80 = zext nneg i32 %.pre to i64
  %.pre82 = add nsw i64 %33, %.pre80
  br label %40

34:                                               ; preds = %._crit_edge
  %35 = sext i32 %30 to i64
  %36 = add nuw nsw i32 %.042.lcssa8790, 4
  %37 = zext nneg i32 %36 to i64
  %38 = add i64 %.044.lcssa, %37
  %39 = icmp ugt i64 %38, %35
  br i1 %39, label %.loopexit54, label %40

40:                                               ; preds = %34, %31
  %.pre-phi83 = phi i64 [ %38, %34 ], [ %.pre82, %31 ]
  %.pre-phi81 = phi i64 [ %37, %34 ], [ %.pre80, %31 ]
  %.145 = phi i64 [ %.044.lcssa, %34 ], [ %33, %31 ]
  %41 = zext nneg i32 %.042.lcssa8790 to i64
  %42 = add i64 %.145, %41
  %43 = add i64 %42, 5
  br label %44

44:                                               ; preds = %40, %.loopexit
  %45 = phi i1 [ true, %40 ], [ false, %.loopexit ]
  %indvars.iv77 = phi i64 [ 0, %40 ], [ 1, %.loopexit ]
  %46 = getelementptr inbounds nuw [2 x ptr], ptr @matroska_doctypes, i64 0, i64 %indvars.iv77
  %47 = load ptr, ptr %46, align 8, !tbaa !125
  %48 = tail call i64 @strlen(ptr noundef nonnull dereferenceable(1) %47) #16
  %49 = icmp ult i64 %.145, %48
  %50 = sub i64 %.pre-phi83, %48
  %.not5064 = icmp ult i64 %50, %.pre-phi81
  %or.cond95 = select i1 %49, i1 true, i1 %.not5064
  br i1 %or.cond95, label %.loopexit, label %.lr.ph67.preheader

.lr.ph67.preheader:                               ; preds = %44
  %51 = sub i64 %43, %48
  br label %.lr.ph67

52:                                               ; preds = %.lr.ph67
  %indvars.iv.next74 = add nuw i64 %indvars.iv73, 1
  %exitcond76 = icmp eq i64 %indvars.iv.next74, %51
  br i1 %exitcond76, label %.loopexit, label %.lr.ph67, !llvm.loop !133

.lr.ph67:                                         ; preds = %.lr.ph67.preheader, %52
  %indvars.iv73 = phi i64 [ %.pre-phi81, %.lr.ph67.preheader ], [ %indvars.iv.next74, %52 ]
  %53 = getelementptr inbounds nuw i8, ptr %3, i64 %indvars.iv73
  %bcmp = tail call i32 @bcmp(ptr nonnull %53, ptr nonnull %47, i64 %48)
  %.not51 = icmp eq i32 %bcmp, 0
  br i1 %.not51, label %.loopexit54, label %52

.loopexit:                                        ; preds = %52, %44
  br i1 %45, label %44, label %.loopexit54, !llvm.loop !134

.loopexit54:                                      ; preds = %.loopexit, %.lr.ph67, %34, %.critedge, %1
  %.0 = phi i32 [ 0, %1 ], [ 0, %.critedge ], [ 0, %34 ], [ 100, %.lr.ph67 ], [ 50, %.loopexit ]
  ret i32 %.0
}